; Function Attrs: nofree norecurse nosync nounwind memory(argmem: read) uwtable
define range(i32 0, 2) i32 @DES_check_key_parity(ptr noundef readonly captures(none) %0) local_unnamed_addr #1 {
  br label %2

2:                                                ; preds = %1, %2
  %indvars.iv = phi i64 [ 0, %1 ], [ %indvars.iv.next, %2 ]
  %.01214 = phi i8 [ -1, %1 ], [ %13, %2 ]
  %3 = getelementptr inbounds nuw [8 x i8], ptr %0, i64 0, i64 %indvars.iv
  %4 = load i8, ptr %3, align 1, !tbaa !3
  %5 = lshr i8 %4, 4
  %6 = xor i8 %5, %4
  %7 = lshr i8 %6, 2
  %8 = xor i8 %7, %6
  %9 = lshr i8 %8, 1
  %10 = xor i8 %9, %8
  %11 = and i8 %10, 1
  %12 = icmp eq i8 %11, 0
  %13 = select i1 %12, i8 0, i8 %.01214
  %indvars.iv.next = add nuw nsw i64 %indvars.iv, 1
  %exitcond.not = icmp eq i64 %indvars.iv.next, 8
  br i1 %exitcond.not, label %14, label %2, !llvm.loop !8

14:                                               ; preds = %2
  %15 = and i8 %13, 1
  %16 = zext nneg i8 %15 to i32
  ret i32 %16
}